target datalayout = "e-m:e-p270:32:32-p271:32:32-p272:64:64-i64:64-i128:128-f80:128-n8:16:32:64-S128"
target triple = "x86_64-pc-linux-gnu"

%struct.WebPPicture = type { i32, i32, i32, i32, ptr, ptr, ptr, i32, i32, ptr, i32, [2 x i32], ptr, i32, [3 x i32], ptr, ptr, i32, ptr, ptr, i32, ptr, ptr, [3 x i32], ptr, ptr, [8 x i32], ptr, ptr, [2 x ptr] }

; Function Attrs: nounwind uwtable
define internal void @PictureGrabSpecs(ptr noundef %0, ptr noundef %1) #0 {
  %3 = alloca ptr, align 8
  %4 = alloca ptr, align 8
  store ptr %0, ptr %3, align 8, !tbaa !3
  store ptr %1, ptr %4, align 8, !tbaa !3
  %5 = load ptr, ptr %4, align 8, !tbaa !3
  %6 = load ptr, ptr %3, align 8, !tbaa !3
  call void @llvm.memcpy.p0.p0.i64(ptr align 8 %5, ptr align 8 %6, i64 256, i1 false), !tbaa.struct !25
  %7 = load ptr, ptr %4, align 8, !tbaa !3
  call void @WebPPictureResetBuffers(ptr noundef %7)
  ret void
}

; Function Attrs: nounwind uwtable
define i32 @WebPPictureCopy(ptr noundef %0, ptr noundef %1) #0 {
  %3 = alloca i32, align 4
  %4 = alloca ptr, align 8
  %5 = alloca ptr, align 8
  store ptr %0, ptr %4, align 8, !tbaa !3
  store ptr %1, ptr %5, align 8, !tbaa !3
  %6 = load ptr, ptr %4, align 8, !tbaa !3
  %7 = icmp eq ptr %6, null
  br i1 %7, label %11, label %8

8:                                                ; preds = %2
  %9 = load ptr, ptr %5, align 8, !tbaa !3
  %10 = icmp eq ptr %9, null
  br i1 %10, label %11, label %12

11:                                               ; preds = %8, %2
  store i32 0, ptr %3, align 4
  br label %139

12:                                               ; preds = %8
  %13 = load ptr, ptr %4, align 8, !tbaa !3
  %14 = load ptr, ptr %5, align 8, !tbaa !3
  %15 = icmp eq ptr %13, %14
  br i1 %15, label %16, label %17

16:                                               ; preds = %12
  store i32 1, ptr %3, align 4
  br label %139

17:                                               ; preds = %12
  %18 = load ptr, ptr %4, align 8, !tbaa !3
  %19 = load ptr, ptr %5, align 8, !tbaa !3
  call void @PictureGrabSpecs(ptr noundef %18, ptr noundef %19)
  %20 = load ptr, ptr %5, align 8, !tbaa !3
  %21 = call i32 @WebPPictureAlloc(ptr noundef %20)
  %22 = icmp ne i32 %21, 0
  br i1 %22, label %24, label %23

23:                                               ; preds = %17
  store i32 0, ptr %3, align 4
  br label %139

24:                                               ; preds = %17
  %25 = load ptr, ptr %4, align 8, !tbaa !3
  %26 = getelementptr inbounds nuw %struct.WebPPicture, ptr %25, i32 0, i32 0
  %27 = load i32, ptr %26, align 8, !tbaa !8
  %28 = icmp ne i32 %27, 0
  br i1 %28, label %116, label %29

29:                                               ; preds = %24
  %30 = load ptr, ptr %4, align 8, !tbaa !3
  %31 = getelementptr inbounds nuw %struct.WebPPicture, ptr %30, i32 0, i32 4
  %32 = load ptr, ptr %31, align 8, !tbaa !14
  %33 = load ptr, ptr %4, align 8, !tbaa !3
  %34 = getelementptr inbounds nuw %struct.WebPPicture, ptr %33, i32 0, i32 7
  %35 = load i32, ptr %34, align 8, !tbaa !15
  %36 = load ptr, ptr %5, align 8, !tbaa !3
  %37 = getelementptr inbounds nuw %struct.WebPPicture, ptr %36, i32 0, i32 4
  %38 = load ptr, ptr %37, align 8, !tbaa !14
  %39 = load ptr, ptr %5, align 8, !tbaa !3
  %40 = getelementptr inbounds nuw %struct.WebPPicture, ptr %39, i32 0, i32 7
  %41 = load i32, ptr %40, align 8, !tbaa !15
  %42 = load ptr, ptr %5, align 8, !tbaa !3
  %43 = getelementptr inbounds nuw %struct.WebPPicture, ptr %42, i32 0, i32 2
  %44 = load i32, ptr %43, align 8, !tbaa !16
  %45 = load ptr, ptr %5, align 8, !tbaa !3
  %46 = getelementptr inbounds nuw %struct.WebPPicture, ptr %45, i32 0, i32 3
  %47 = load i32, ptr %46, align 4, !tbaa !17
  call void @WebPCopyPlane(ptr noundef %32, i32 noundef %35, ptr noundef %38, i32 noundef %41, i32 noundef %44, i32 noundef %47)
  %48 = load ptr, ptr %4, align 8, !tbaa !3
  %49 = getelementptr inbounds nuw %struct.WebPPicture, ptr %48, i32 0, i32 5
  %50 = load ptr, ptr %49, align 8, !tbaa !18
  %51 = load ptr, ptr %4, align 8, !tbaa !3
  %52 = getelementptr inbounds nuw %struct.WebPPicture, ptr %51, i32 0, i32 8
  %53 = load i32, ptr %52, align 4, !tbaa !19
  %54 = load ptr, ptr %5, align 8, !tbaa !3
  %55 = getelementptr inbounds nuw %struct.WebPPicture, ptr %54, i32 0, i32 5
  %56 = load ptr, ptr %55, align 8, !tbaa !18
  %57 = load ptr, ptr %5, align 8, !tbaa !3
  %58 = getelementptr inbounds nuw %struct.WebPPicture, ptr %57, i32 0, i32 8
  %59 = load i32, ptr %58, align 4, !tbaa !19
  %60 = load ptr, ptr %5, align 8, !tbaa !3
  %61 = getelementptr inbounds nuw %struct.WebPPicture, ptr %60, i32 0, i32 2
  %62 = load i32, ptr %61, align 8, !tbaa !16
  %63 = add nsw i32 %62, 1
  %64 = ashr i32 %63, 1
  %65 = load ptr, ptr %5, align 8, !tbaa !3
  %66 = getelementptr inbounds nuw %struct.WebPPicture, ptr %65, i32 0, i32 3
  %67 = load i32, ptr %66, align 4, !tbaa !17
  %68 = add nsw i32 %67, 1
  %69 = ashr i32 %68, 1
  call void @WebPCopyPlane(ptr noundef %50, i32 noundef %53, ptr noundef %56, i32 noundef %59, i32 noundef %64, i32 noundef %69)
  %70 = load ptr, ptr %4, align 8, !tbaa !3
  %71 = getelementptr inbounds nuw %struct.WebPPicture, ptr %70, i32 0, i32 6
  %72 = load ptr, ptr %71, align 8, !tbaa !20
  %73 = load ptr, ptr %4, align 8, !tbaa !3
  %74 = getelementptr inbounds nuw %struct.WebPPicture, ptr %73, i32 0, i32 8
  %75 = load i32, ptr %74, align 4, !tbaa !19
  %76 = load ptr, ptr %5, align 8, !tbaa !3
  %77 = getelementptr inbounds nuw %struct.WebPPicture, ptr %76, i32 0, i32 6
  %78 = load ptr, ptr %77, align 8, !tbaa !20
  %79 = load ptr, ptr %5, align 8, !tbaa !3
  %80 = getelementptr inbounds nuw %struct.WebPPicture, ptr %79, i32 0, i32 8
  %81 = load i32, ptr %80, align 4, !tbaa !19
  %82 = load ptr, ptr %5, align 8, !tbaa !3
  %83 = getelementptr inbounds nuw %struct.WebPPicture, ptr %82, i32 0, i32 2
  %84 = load i32, ptr %83, align 8, !tbaa !16
  %85 = add nsw i32 %84, 1
  %86 = ashr i32 %85, 1
  %87 = load ptr, ptr %5, align 8, !tbaa !3
  %88 = getelementptr inbounds nuw %struct.WebPPicture, ptr %87, i32 0, i32 3
  %89 = load i32, ptr %88, align 4, !tbaa !17
  %90 = add nsw i32 %89, 1
  %91 = ashr i32 %90, 1
  call void @WebPCopyPlane(ptr noundef %72, i32 noundef %75, ptr noundef %78, i32 noundef %81, i32 noundef %86, i32 noundef %91)
  %92 = load ptr, ptr %5, align 8, !tbaa !3
  %93 = getelementptr inbounds nuw %struct.WebPPicture, ptr %92, i32 0, i32 9
  %94 = load ptr, ptr %93, align 8, !tbaa !21
  %95 = icmp ne ptr %94, null
  br i1 %95, label %96, label %115

96:                                               ; preds = %29
  %97 = load ptr, ptr %4, align 8, !tbaa !3
  %98 = getelementptr inbounds nuw %struct.WebPPicture, ptr %97, i32 0, i32 9
  %99 = load ptr, ptr %98, align 8, !tbaa !21
  %100 = load ptr, ptr %4, align 8, !tbaa !3
  %101 = getelementptr inbounds nuw %struct.WebPPicture, ptr %100, i32 0, i32 10
  %102 = load i32, ptr %101, align 8, !tbaa !22
  %103 = load ptr, ptr %5, align 8, !tbaa !3
  %104 = getelementptr inbounds nuw %struct.WebPPicture, ptr %103, i32 0, i32 9
  %105 = load ptr, ptr %104, align 8, !tbaa !21
  %106 = load ptr, ptr %5, align 8, !tbaa !3
  %107 = getelementptr inbounds nuw %struct.WebPPicture, ptr %106, i32 0, i32 10
  %108 = load i32, ptr %107, align 8, !tbaa !22
  %109 = load ptr, ptr %5, align 8, !tbaa !3
  %110 = getelementptr inbounds nuw %struct.WebPPicture, ptr %109, i32 0, i32 2
  %111 = load i32, ptr %110, align 8, !tbaa !16
  %112 = load ptr, ptr %5, align 8, !tbaa !3
  %113 = getelementptr inbounds nuw %struct.WebPPicture, ptr %112, i32 0, i32 3
  %114 = load i32, ptr %113, align 4, !tbaa !17
  call void @WebPCopyPlane(ptr noundef %99, i32 noundef %102, ptr noundef %105, i32 noundef %108, i32 noundef %111, i32 noundef %114)
  br label %115

115:                                              ; preds = %96, %29
  br label %138

116:                                              ; preds = %24
  %117 = load ptr, ptr %4, align 8, !tbaa !3
  %118 = getelementptr inbounds nuw %struct.WebPPicture, ptr %117, i32 0, i32 12
  %119 = load ptr, ptr %118, align 8, !tbaa !23
  %120 = load ptr, ptr %4, align 8, !tbaa !3
  %121 = getelementptr inbounds nuw %struct.WebPPicture, ptr %120, i32 0, i32 13
  %122 = load i32, ptr %121, align 8, !tbaa !24
  %123 = mul nsw i32 4, %122
  %124 = load ptr, ptr %5, align 8, !tbaa !3
  %125 = getelementptr inbounds nuw %struct.WebPPicture, ptr %124, i32 0, i32 12
  %126 = load ptr, ptr %125, align 8, !tbaa !23
  %127 = load ptr, ptr %5, align 8, !tbaa !3
  %128 = getelementptr inbounds nuw %struct.WebPPicture, ptr %127, i32 0, i32 13
  %129 = load i32, ptr %128, align 8, !tbaa !24
  %130 = mul nsw i32 4, %129
  %131 = load ptr, ptr %5, align 8, !tbaa !3
  %132 = getelementptr inbounds nuw %struct.WebPPicture, ptr %131, i32 0, i32 2
  %133 = load i32, ptr %132, align 8, !tbaa !16
  %134 = mul nsw i32 4, %133
  %135 = load ptr, ptr %5, align 8, !tbaa !3
  %136 = getelementptr inbounds nuw %struct.WebPPicture, ptr %135, i32 0, i32 3
  %137 = load i32, ptr %136, align 4, !tbaa !17
  call void @WebPCopyPlane(ptr noundef %119, i32 noundef %123, ptr noundef %126, i32 noundef %130, i32 noundef %134, i32 noundef %137)
  br label %138

138:                                              ; preds = %116, %115
  store i32 1, ptr %3, align 4
  br label %139

139:                                              ; preds = %138, %23, %16, %11
  %140 = load i32, ptr %3, align 4
  ret i32 %140
}