; Function Attrs: nounwind uwtable
define range(i32 0, 2) i32 @WebPPictureCopy(ptr noundef readonly captures(address) %0, ptr noundef %1) local_unnamed_addr #0 {
  %3 = icmp eq ptr %0, null
  %4 = icmp eq ptr %1, null
  %or.cond = or i1 %3, %4
  br i1 %or.cond, label %77, label %5

5:                                                ; preds = %2
  %6 = icmp eq ptr %0, %1
  br i1 %6, label %77, label %7

7:                                                ; preds = %5
  tail call void @llvm.memcpy.p0.p0.i64(ptr noundef nonnull align 8 dereferenceable(256) %1, ptr noundef nonnull readonly align 8 dereferenceable(256) %0, i64 256, i1 false), !tbaa.struct !3
  tail call void @WebPPictureResetBuffers(ptr noundef nonnull %1) #5
  %8 = tail call i32 @WebPPictureAlloc(ptr noundef nonnull %1) #5
  %.not = icmp eq i32 %8, 0
  br i1 %.not, label %77, label %9

9:                                                ; preds = %7
  %10 = load i32, ptr %0, align 8, !tbaa !17
  %.not43 = icmp eq i32 %10, 0
  br i1 %.not43, label %11, label %61

11:                                               ; preds = %9
  %12 = getelementptr inbounds nuw i8, ptr %0, i64 16
  %13 = load ptr, ptr %12, align 8, !tbaa !19
  %14 = getelementptr inbounds nuw i8, ptr %0, i64 40
  %15 = load i32, ptr %14, align 8, !tbaa !20
  %16 = getelementptr inbounds nuw i8, ptr %1, i64 16
  %17 = load ptr, ptr %16, align 8, !tbaa !19
  %18 = getelementptr inbounds nuw i8, ptr %1, i64 40
  %19 = load i32, ptr %18, align 8, !tbaa !20
  %20 = getelementptr inbounds nuw i8, ptr %1, i64 8
  %21 = load i32, ptr %20, align 8, !tbaa !21
  %22 = getelementptr inbounds nuw i8, ptr %1, i64 12
  %23 = load i32, ptr %22, align 4, !tbaa !22
  tail call void @WebPCopyPlane(ptr noundef %13, i32 noundef %15, ptr noundef %17, i32 noundef %19, i32 noundef %21, i32 noundef %23) #5
  %24 = getelementptr inbounds nuw i8, ptr %0, i64 24
  %25 = load ptr, ptr %24, align 8, !tbaa !23
  %26 = getelementptr inbounds nuw i8, ptr %0, i64 44
  %27 = load i32, ptr %26, align 4, !tbaa !24
  %28 = getelementptr inbounds nuw i8, ptr %1, i64 24
  %29 = load ptr, ptr %28, align 8, !tbaa !23
  %30 = getelementptr inbounds nuw i8, ptr %1, i64 44
  %31 = load i32, ptr %30, align 4, !tbaa !24
  %32 = load i32, ptr %20, align 8, !tbaa !21
  %33 = add nsw i32 %32, 1
  %34 = ashr i32 %33, 1
  %35 = load i32, ptr %22, align 4, !tbaa !22
  %36 = add nsw i32 %35, 1
  %37 = ashr i32 %36, 1
  tail call void @WebPCopyPlane(ptr noundef %25, i32 noundef %27, ptr noundef %29, i32 noundef %31, i32 noundef %34, i32 noundef %37) #5
  %38 = getelementptr inbounds nuw i8, ptr %0, i64 32
  %39 = load ptr, ptr %38, align 8, !tbaa !25
  %40 = load i32, ptr %26, align 4, !tbaa !24
  %41 = getelementptr inbounds nuw i8, ptr %1, i64 32
  %42 = load ptr, ptr %41, align 8, !tbaa !25
  %43 = load i32, ptr %30, align 4, !tbaa !24
  %44 = load i32, ptr %20, align 8, !tbaa !21
  %45 = add nsw i32 %44, 1
  %46 = ashr i32 %45, 1
  %47 = load i32, ptr %22, align 4, !tbaa !22
  %48 = add nsw i32 %47, 1
  %49 = ashr i32 %48, 1
  tail call void @WebPCopyPlane(ptr noundef %39, i32 noundef %40, ptr noundef %42, i32 noundef %43, i32 noundef %46, i32 noundef %49) #5
  %50 = getelementptr inbounds nuw i8, ptr %1, i64 48
  %51 = load ptr, ptr %50, align 8, !tbaa !26
  %.not44 = icmp eq ptr %51, null
  br i1 %.not44, label %77, label %52

52:                                               ; preds = %11
  %53 = getelementptr inbounds nuw i8, ptr %0, i64 48
  %54 = load ptr, ptr %53, align 8, !tbaa !26
  %55 = getelementptr inbounds nuw i8, ptr %0, i64 56
  %56 = load i32, ptr %55, align 8, !tbaa !27
  %57 = getelementptr inbounds nuw i8, ptr %1, i64 56
  %58 = load i32, ptr %57, align 8, !tbaa !27
  %59 = load i32, ptr %20, align 8, !tbaa !21
  %60 = load i32, ptr %22, align 4, !tbaa !22
  tail call void @WebPCopyPlane(ptr noundef %54, i32 noundef %56, ptr noundef nonnull %51, i32 noundef %58, i32 noundef %59, i32 noundef %60) #5
  br label %77

61:                                               ; preds = %9
  %62 = getelementptr inbounds nuw i8, ptr %0, i64 72
  %63 = load ptr, ptr %62, align 8, !tbaa !28
  %64 = getelementptr inbounds nuw i8, ptr %0, i64 80
  %65 = load i32, ptr %64, align 8, !tbaa !29
  %66 = shl nsw i32 %65, 2
  %67 = getelementptr inbounds nuw i8, ptr %1, i64 72
  %68 = load ptr, ptr %67, align 8, !tbaa !28
  %69 = getelementptr inbounds nuw i8, ptr %1, i64 80
  %70 = load i32, ptr %69, align 8, !tbaa !29
  %71 = shl nsw i32 %70, 2
  %72 = getelementptr inbounds nuw i8, ptr %1, i64 8
  %73 = load i32, ptr %72, align 8, !tbaa !21
  %74 = shl nsw i32 %73, 2
  %75 = getelementptr inbounds nuw i8, ptr %1, i64 12
  %76 = load i32, ptr %75, align 4, !tbaa !22
  tail call void @WebPCopyPlane(ptr noundef %63, i32 noundef %66, ptr noundef %68, i32 noundef %71, i32 noundef %74, i32 noundef %76) #5
  br label %77

77:                                               ; preds = %61, %52, %11, %7, %5, %2
  %.0 = phi i32 [ 0, %2 ], [ 1, %5 ], [ 0, %7 ], [ 1, %11 ], [ 1, %52 ], [ 1, %61 ]
  ret i32 %.0
}